; Function Attrs: mustprogress nounwind uwtable
define hidden void @_ZN5boost4urls12segments_refC2ERNS0_8url_baseE(ptr noundef nonnull align 8 dereferenceable(48) %0, ptr noundef nonnull align 8 dereferenceable(216) %1) unnamed_addr #3 align 2 {
  %3 = alloca %"class.boost::urls::detail::path_ref", align 8
  call void @llvm.lifetime.start.p0(i64 40, ptr nonnull %3) #13
  %4 = getelementptr inbounds i8, ptr %1, i64 16
  call void @_ZN5boost4urls6detail8path_refC1ERKNS1_8url_implE(ptr noundef nonnull align 8 dereferenceable(40) %3, ptr noundef nonnull align 8 dereferenceable(171) %4) #13
  call void @_ZN5boost4urls13segments_baseC2ERKNS0_6detail8path_refE(ptr noundef nonnull align 8 dereferenceable(40) %0, ptr noundef nonnull align 8 dereferenceable(40) %3) #13
  call void @llvm.lifetime.end.p0(i64 40, ptr nonnull %3) #13
  %5 = getelementptr inbounds nuw i8, ptr %0, i64 40
  store ptr %1, ptr %5, align 8, !tbaa !3
  ret void
}